target datalayout = "e-m:e-p270:32:32-p271:32:32-p272:64:64-i64:64-i128:128-f80:128-n8:16:32:64-S128"
target triple = "x86_64-pc-linux-gnu"

%struct.UriParserStateStructW = type { ptr, i32, ptr, ptr }
%struct.UriUriStructW = type { %struct.UriTextRangeStructW, %struct.UriTextRangeStructW, %struct.UriTextRangeStructW, %struct.UriHostDataStructW, %struct.UriTextRangeStructW, ptr, ptr, %struct.UriTextRangeStructW, %struct.UriTextRangeStructW, i32, i32, ptr }
%struct.UriHostDataStructW = type { ptr, ptr, %struct.UriTextRangeStructW }
%struct.UriTextRangeStructW = type { ptr, ptr }

; Function Attrs: inlinehint nounwind uwtable
define internal void @uriStopMallocW(ptr noundef %0, ptr noundef %1) #4 {
  %3 = alloca ptr, align 8
  %4 = alloca ptr, align 8
  store ptr %0, ptr %3, align 8, !tbaa !59
  store ptr %1, ptr %4, align 8, !tbaa !10
  %5 = load ptr, ptr %3, align 8, !tbaa !59
  %6 = getelementptr inbounds nuw %struct.UriParserStateStructW, ptr %5, i32 0, i32 0
  %7 = load ptr, ptr %6, align 8, !tbaa !63
  %8 = load ptr, ptr %4, align 8, !tbaa !10
  %9 = call i32 @uriFreeUriMembersMmW(ptr noundef %7, ptr noundef %8)
  %10 = load ptr, ptr %3, align 8, !tbaa !59
  %11 = getelementptr inbounds nuw %struct.UriParserStateStructW, ptr %10, i32 0, i32 2
  store ptr null, ptr %11, align 8, !tbaa !67
  %12 = load ptr, ptr %3, align 8, !tbaa !59
  %13 = getelementptr inbounds nuw %struct.UriParserStateStructW, ptr %12, i32 0, i32 1
  store i32 3, ptr %13, align 8, !tbaa !68
  ret void
}

; Function Attrs: nounwind uwtable
define internal ptr @uriParsePortW(ptr noundef %0, ptr noundef %1, ptr noundef %2) #0 {
  %4 = alloca ptr, align 8
  %5 = alloca ptr, align 8
  %6 = alloca ptr, align 8
  %7 = alloca ptr, align 8
  store ptr %0, ptr %5, align 8, !tbaa !59
  store ptr %1, ptr %6, align 8, !tbaa !61
  store ptr %2, ptr %7, align 8, !tbaa !61
  %8 = load ptr, ptr %6, align 8, !tbaa !61
  %9 = load ptr, ptr %7, align 8, !tbaa !61
  %10 = icmp uge ptr %8, %9
  br i1 %10, label %11, label %13

11:                                               ; preds = %3
  %12 = load ptr, ptr %7, align 8, !tbaa !61
  store ptr %12, ptr %4, align 8
  br label %24

13:                                               ; preds = %3
  %14 = load ptr, ptr %6, align 8, !tbaa !61
  %15 = load i32, ptr %14, align 4, !tbaa !21
  switch i32 %15, label %22 [
    i32 48, label %16
    i32 49, label %16
    i32 50, label %16
    i32 51, label %16
    i32 52, label %16
    i32 53, label %16
    i32 54, label %16
    i32 55, label %16
    i32 56, label %16
    i32 57, label %16
  ]

16:                                               ; preds = %13, %13, %13, %13, %13, %13, %13, %13, %13, %13
  %17 = load ptr, ptr %5, align 8, !tbaa !59
  %18 = load ptr, ptr %6, align 8, !tbaa !61
  %19 = getelementptr inbounds i32, ptr %18, i64 1
  %20 = load ptr, ptr %7, align 8, !tbaa !61
  %21 = call ptr @uriParsePortW(ptr noundef %17, ptr noundef %19, ptr noundef %20)
  store ptr %21, ptr %4, align 8
  br label %24

22:                                               ; preds = %13
  %23 = load ptr, ptr %6, align 8, !tbaa !61
  store ptr %23, ptr %4, align 8
  br label %24

24:                                               ; preds = %22, %16, %11
  %25 = load ptr, ptr %4, align 8
  ret ptr %25
}

; Function Attrs: nounwind uwtable
define internal ptr @uriParseOwnHost2W(ptr noundef %0, ptr noundef %1, ptr noundef %2, ptr noundef %3) #0 {
  %5 = alloca ptr, align 8
  %6 = alloca ptr, align 8
  %7 = alloca ptr, align 8
  %8 = alloca ptr, align 8
  %9 = alloca ptr, align 8
  %10 = alloca ptr, align 8
  %11 = alloca i32, align 4
  store ptr %0, ptr %6, align 8, !tbaa !59
  store ptr %1, ptr %7, align 8, !tbaa !61
  store ptr %2, ptr %8, align 8, !tbaa !61
  store ptr %3, ptr %9, align 8, !tbaa !10
  %12 = load ptr, ptr %7, align 8, !tbaa !61
  %13 = load ptr, ptr %8, align 8, !tbaa !61
  %14 = icmp uge ptr %12, %13
  br i1 %14, label %15, label %26

15:                                               ; preds = %4
  %16 = load ptr, ptr %6, align 8, !tbaa !59
  %17 = load ptr, ptr %7, align 8, !tbaa !61
  %18 = load ptr, ptr %9, align 8, !tbaa !10
  %19 = call i32 @uriOnExitOwnHost2W(ptr noundef %16, ptr noundef %17, ptr noundef %18)
  %20 = icmp ne i32 %19, 0
  br i1 %20, label %24, label %21

21:                                               ; preds = %15
  %22 = load ptr, ptr %6, align 8, !tbaa !59
  %23 = load ptr, ptr %9, align 8, !tbaa !10
  call void @uriStopMallocW(ptr noundef %22, ptr noundef %23)
  store ptr null, ptr %5, align 8
  br label %59

24:                                               ; preds = %15
  %25 = load ptr, ptr %8, align 8, !tbaa !61
  store ptr %25, ptr %5, align 8
  br label %59

26:                                               ; preds = %4
  %27 = load ptr, ptr %7, align 8, !tbaa !61
  %28 = load i32, ptr %27, align 4, !tbaa !21
  switch i32 %28, label %45 [
    i32 33, label %29
    i32 36, label %29
    i32 37, label %29
    i32 38, label %29
    i32 40, label %29
    i32 41, label %29
    i32 45, label %29
    i32 42, label %29
    i32 44, label %29
    i32 46, label %29
    i32 59, label %29
    i32 39, label %29
    i32 95, label %29
    i32 126, label %29
    i32 43, label %29
    i32 61, label %29
    i32 48, label %29
    i32 49, label %29
    i32 50, label %29
    i32 51, label %29
    i32 52, label %29
    i32 53, label %29
    i32 54, label %29
    i32 55, label %29
    i32 56, label %29
    i32 57, label %29
    i32 65, label %29
    i32 66, label %29
    i32 67, label %29
    i32 68, label %29
    i32 69, label %29
    i32 70, label %29
    i32 97, label %29
    i32 98, label %29
    i32 99, label %29
    i32 100, label %29
    i32 101, label %29
    i32 102, label %29
    i32 103, label %29
    i32 71, label %29
    i32 104, label %29
    i32 72, label %29
    i32 105, label %29
    i32 73, label %29
    i32 106, label %29
    i32 74, label %29
    i32 107, label %29
    i32 75, label %29
    i32 108, label %29
    i32 76, label %29
    i32 109, label %29
    i32 77, label %29
    i32 110, label %29
    i32 78, label %29
    i32 111, label %29
    i32 79, label %29
    i32 112, label %29
    i32 80, label %29
    i32 113, label %29
    i32 81, label %29
    i32 114, label %29
    i32 82, label %29
    i32 115, label %29
    i32 83, label %29
    i32 116, label %29
    i32 84, label %29
    i32 117, label %29
    i32 85, label %29
    i32 118, label %29
    i32 86, label %29
    i32 119, label %29
    i32 87, label %29
    i32 120, label %29
    i32 88, label %29
    i32 121, label %29
    i32 89, label %29
    i32 122, label %29
    i32 90, label %29
  ]

29:                                               ; preds = %26, %26, %26, %26, %26, %26, %26, %26, %26, %26, %26, %26, %26, %26, %26, %26, %26, %26, %26, %26, %26, %26, %26, %26, %26, %26, %26, %26, %26, %26, %26, %26, %26, %26, %26, %26, %26, %26, %26, %26, %26, %26, %26, %26, %26, %26, %26, %26, %26, %26, %26, %26, %26, %26, %26, %26, %26, %26, %26, %26, %26, %26, %26, %26, %26, %26, %26, %26, %26, %26, %26, %26, %26, %26, %26, %26, %26, %26
  call void @llvm.lifetime.start.p0(i64 8, ptr %10) #7
  %30 = load ptr, ptr %6, align 8, !tbaa !59
  %31 = load ptr, ptr %7, align 8, !tbaa !61
  %32 = load ptr, ptr %8, align 8, !tbaa !61
  %33 = load ptr, ptr %9, align 8, !tbaa !10
  %34 = call ptr @uriParsePctSubUnresW(ptr noundef %30, ptr noundef %31, ptr noundef %32, ptr noundef %33)
  store ptr %34, ptr %10, align 8, !tbaa !61
  %35 = load ptr, ptr %10, align 8, !tbaa !61
  %36 = icmp eq ptr %35, null
  br i1 %36, label %37, label %38

37:                                               ; preds = %29
  store ptr null, ptr %5, align 8
  store i32 1, ptr %11, align 4
  br label %44

38:                                               ; preds = %29
  %39 = load ptr, ptr %6, align 8, !tbaa !59
  %40 = load ptr, ptr %10, align 8, !tbaa !61
  %41 = load ptr, ptr %8, align 8, !tbaa !61
  %42 = load ptr, ptr %9, align 8, !tbaa !10
  %43 = call ptr @uriParseOwnHost2W(ptr noundef %39, ptr noundef %40, ptr noundef %41, ptr noundef %42)
  store ptr %43, ptr %5, align 8
  store i32 1, ptr %11, align 4
  br label %44

44:                                               ; preds = %38, %37
  call void @llvm.lifetime.end.p0(i64 8, ptr %10) #7
  br label %59

45:                                               ; preds = %26
  %46 = load ptr, ptr %6, align 8, !tbaa !59
  %47 = load ptr, ptr %7, align 8, !tbaa !61
  %48 = load ptr, ptr %9, align 8, !tbaa !10
  %49 = call i32 @uriOnExitOwnHost2W(ptr noundef %46, ptr noundef %47, ptr noundef %48)
  %50 = icmp ne i32 %49, 0
  br i1 %50, label %54, label %51

51:                                               ; preds = %45
  %52 = load ptr, ptr %6, align 8, !tbaa !59
  %53 = load ptr, ptr %9, align 8, !tbaa !10
  call void @uriStopMallocW(ptr noundef %52, ptr noundef %53)
  store ptr null, ptr %5, align 8
  br label %59

54:                                               ; preds = %45
  %55 = load ptr, ptr %6, align 8, !tbaa !59
  %56 = load ptr, ptr %7, align 8, !tbaa !61
  %57 = load ptr, ptr %8, align 8, !tbaa !61
  %58 = call ptr @uriParseAuthorityTwoW(ptr noundef %55, ptr noundef %56, ptr noundef %57)
  store ptr %58, ptr %5, align 8
  br label %59

59:                                               ; preds = %54, %51, %44, %24, %21
  %60 = load ptr, ptr %5, align 8
  ret ptr %60
}

; Function Attrs: inlinehint nounwind uwtable
define internal ptr @uriParseAuthorityTwoW(ptr noundef %0, ptr noundef %1, ptr noundef %2) #4 {
  %4 = alloca ptr, align 8
  %5 = alloca ptr, align 8
  %6 = alloca ptr, align 8
  %7 = alloca ptr, align 8
  %8 = alloca ptr, align 8
  %9 = alloca i32, align 4
  store ptr %0, ptr %5, align 8, !tbaa !59
  store ptr %1, ptr %6, align 8, !tbaa !61
  store ptr %2, ptr %7, align 8, !tbaa !61
  %10 = load ptr, ptr %6, align 8, !tbaa !61
  %11 = load ptr, ptr %7, align 8, !tbaa !61
  %12 = icmp uge ptr %10, %11
  br i1 %12, label %13, label %15

13:                                               ; preds = %3
  %14 = load ptr, ptr %7, align 8, !tbaa !61
  store ptr %14, ptr %4, align 8
  br label %45

15:                                               ; preds = %3
  %16 = load ptr, ptr %6, align 8, !tbaa !61
  %17 = load i32, ptr %16, align 4, !tbaa !21
  switch i32 %17, label %43 [
    i32 58, label %18
  ]

18:                                               ; preds = %15
  call void @llvm.lifetime.start.p0(i64 8, ptr %8) #7
  %19 = load ptr, ptr %5, align 8, !tbaa !59
  %20 = load ptr, ptr %6, align 8, !tbaa !61
  %21 = getelementptr inbounds i32, ptr %20, i64 1
  %22 = load ptr, ptr %7, align 8, !tbaa !61
  %23 = call ptr @uriParsePortW(ptr noundef %19, ptr noundef %21, ptr noundef %22)
  store ptr %23, ptr %8, align 8, !tbaa !61
  %24 = load ptr, ptr %8, align 8, !tbaa !61
  %25 = icmp eq ptr %24, null
  br i1 %25, label %26, label %27

26:                                               ; preds = %18
  store ptr null, ptr %4, align 8
  store i32 1, ptr %9, align 4
  br label %42

27:                                               ; preds = %18
  %28 = load ptr, ptr %6, align 8, !tbaa !61
  %29 = getelementptr inbounds i32, ptr %28, i64 1
  %30 = load ptr, ptr %5, align 8, !tbaa !59
  %31 = getelementptr inbounds nuw %struct.UriParserStateStructW, ptr %30, i32 0, i32 0
  %32 = load ptr, ptr %31, align 8, !tbaa !63
  %33 = getelementptr inbounds nuw %struct.UriUriStructW, ptr %32, i32 0, i32 4
  %34 = getelementptr inbounds nuw %struct.UriTextRangeStructW, ptr %33, i32 0, i32 0
  store ptr %29, ptr %34, align 8, !tbaa !86
  %35 = load ptr, ptr %8, align 8, !tbaa !61
  %36 = load ptr, ptr %5, align 8, !tbaa !59
  %37 = getelementptr inbounds nuw %struct.UriParserStateStructW, ptr %36, i32 0, i32 0
  %38 = load ptr, ptr %37, align 8, !tbaa !63
  %39 = getelementptr inbounds nuw %struct.UriUriStructW, ptr %38, i32 0, i32 4
  %40 = getelementptr inbounds nuw %struct.UriTextRangeStructW, ptr %39, i32 0, i32 1
  store ptr %35, ptr %40, align 8, !tbaa !87
  %41 = load ptr, ptr %8, align 8, !tbaa !61
  store ptr %41, ptr %4, align 8
  store i32 1, ptr %9, align 4
  br label %42

42:                                               ; preds = %27, %26
  call void @llvm.lifetime.end.p0(i64 8, ptr %8) #7
  br label %45

43:                                               ; preds = %15
  %44 = load ptr, ptr %6, align 8, !tbaa !61
  store ptr %44, ptr %4, align 8
  br label %45

45:                                               ; preds = %43, %42, %13
  %46 = load ptr, ptr %4, align 8
  ret ptr %46
}

; Function Attrs: inlinehint nounwind uwtable
define internal ptr @uriParseOwnHostW(ptr noundef %0, ptr noundef %1, ptr noundef %2, ptr noundef %3) #4 {
  %5 = alloca ptr, align 8
  %6 = alloca ptr, align 8
  %7 = alloca ptr, align 8
  %8 = alloca ptr, align 8
  %9 = alloca ptr, align 8
  %10 = alloca ptr, align 8
  %11 = alloca i32, align 4
  store ptr %0, ptr %6, align 8, !tbaa !59
  store ptr %1, ptr %7, align 8, !tbaa !61
  store ptr %2, ptr %8, align 8, !tbaa !61
  store ptr %3, ptr %9, align 8, !tbaa !10
  %12 = load ptr, ptr %7, align 8, !tbaa !61
  %13 = load ptr, ptr %8, align 8, !tbaa !61
  %14 = icmp uge ptr %12, %13
  br i1 %14, label %15, label %23

15:                                               ; preds = %4
  %16 = load ptr, ptr %8, align 8, !tbaa !61
  %17 = load ptr, ptr %6, align 8, !tbaa !59
  %18 = getelementptr inbounds nuw %struct.UriParserStateStructW, ptr %17, i32 0, i32 0
  %19 = load ptr, ptr %18, align 8, !tbaa !63
  %20 = getelementptr inbounds nuw %struct.UriUriStructW, ptr %19, i32 0, i32 2
  %21 = getelementptr inbounds nuw %struct.UriTextRangeStructW, ptr %20, i32 0, i32 1
  store ptr %16, ptr %21, align 8, !tbaa !83
  %22 = load ptr, ptr %8, align 8, !tbaa !61
  store ptr %22, ptr %5, align 8
  br label %55

23:                                               ; preds = %4
  %24 = load ptr, ptr %7, align 8, !tbaa !61
  %25 = load i32, ptr %24, align 4, !tbaa !21
  switch i32 %25, label %49 [
    i32 91, label %26
  ]

26:                                               ; preds = %23
  call void @llvm.lifetime.start.p0(i64 8, ptr %10) #7
  %27 = load ptr, ptr %6, align 8, !tbaa !59
  %28 = load ptr, ptr %7, align 8, !tbaa !61
  %29 = getelementptr inbounds i32, ptr %28, i64 1
  %30 = load ptr, ptr %8, align 8, !tbaa !61
  %31 = load ptr, ptr %9, align 8, !tbaa !10
  %32 = call ptr @uriParseIpLit2W(ptr noundef %27, ptr noundef %29, ptr noundef %30, ptr noundef %31)
  store ptr %32, ptr %10, align 8, !tbaa !61
  %33 = load ptr, ptr %10, align 8, !tbaa !61
  %34 = icmp eq ptr %33, null
  br i1 %34, label %35, label %36

35:                                               ; preds = %26
  store ptr null, ptr %5, align 8
  store i32 1, ptr %11, align 4
  br label %48

36:                                               ; preds = %26
  %37 = load ptr, ptr %7, align 8, !tbaa !61
  %38 = getelementptr inbounds i32, ptr %37, i64 1
  %39 = load ptr, ptr %6, align 8, !tbaa !59
  %40 = getelementptr inbounds nuw %struct.UriParserStateStructW, ptr %39, i32 0, i32 0
  %41 = load ptr, ptr %40, align 8, !tbaa !63
  %42 = getelementptr inbounds nuw %struct.UriUriStructW, ptr %41, i32 0, i32 2
  %43 = getelementptr inbounds nuw %struct.UriTextRangeStructW, ptr %42, i32 0, i32 0
  store ptr %38, ptr %43, align 8, !tbaa !82
  %44 = load ptr, ptr %6, align 8, !tbaa !59
  %45 = load ptr, ptr %10, align 8, !tbaa !61
  %46 = load ptr, ptr %8, align 8, !tbaa !61
  %47 = call ptr @uriParseAuthorityTwoW(ptr noundef %44, ptr noundef %45, ptr noundef %46)
  store ptr %47, ptr %5, align 8
  store i32 1, ptr %11, align 4
  br label %48

48:                                               ; preds = %36, %35
  call void @llvm.lifetime.end.p0(i64 8, ptr %10) #7
  br label %55

49:                                               ; preds = %23
  %50 = load ptr, ptr %6, align 8, !tbaa !59
  %51 = load ptr, ptr %7, align 8, !tbaa !61
  %52 = load ptr, ptr %8, align 8, !tbaa !61
  %53 = load ptr, ptr %9, align 8, !tbaa !10
  %54 = call ptr @uriParseOwnHost2W(ptr noundef %50, ptr noundef %51, ptr noundef %52, ptr noundef %53)
  store ptr %54, ptr %5, align 8
  br label %55

55:                                               ; preds = %49, %48, %15
  %56 = load ptr, ptr %5, align 8
  ret ptr %56
}